; Function Attrs: nounwind uwtable
define internal fastcc i32 @png_image_write_init(ptr noundef %0) unnamed_addr #0 {
  %2 = alloca ptr, align 8
  %3 = alloca ptr, align 8
  %4 = tail call noalias ptr @png_create_png_struct(ptr noundef nonnull @.str.23, ptr noundef %0, ptr noundef nonnull @png_safe_error, ptr noundef nonnull @png_safe_warning, ptr noundef null, ptr noundef null, ptr noundef null) #15
  %.not.i.i = icmp eq ptr %4, null
  br i1 %.not.i.i, label %png_create_write_struct.exit.thread, label %5

png_create_write_struct.exit.thread:              ; preds = %1
  store ptr null, ptr %2, align 8
  br label %20

5:                                                ; preds = %1
  %6 = getelementptr inbounds i8, ptr %4, i64 440
  %7 = getelementptr inbounds i8, ptr %4, i64 456
  store <4 x i32> <i32 8192, i32 -1, i32 8, i32 15>, ptr %6, align 8
  %8 = getelementptr inbounds i8, ptr %4, i64 480
  store i32 0, ptr %8, align 8
  %9 = getelementptr inbounds i8, ptr %4, i64 476
  store i32 8, ptr %9, align 4
  %10 = getelementptr inbounds i8, ptr %4, i64 472
  store i32 15, ptr %10, align 8
  store <4 x i32> <i32 8, i32 1, i32 -1, i32 8>, ptr %7, align 8
  tail call void @png_set_write_fn(ptr noundef nonnull %4, ptr noundef null, ptr noundef null, ptr noundef null) #15
  store ptr %4, ptr %2, align 8
  %11 = tail call noalias ptr @png_create_info_struct(ptr noundef nonnull %4) #15
  store ptr %11, ptr %3, align 8
  %.not11 = icmp eq ptr %11, null
  br i1 %.not11, label %19, label %12

12:                                               ; preds = %5
  %13 = tail call noalias ptr @png_malloc_warn(ptr noundef nonnull %4, i64 noundef 48) #15
  %.not12 = icmp eq ptr %13, null
  br i1 %.not12, label %18, label %14

14:                                               ; preds = %12
  %15 = getelementptr inbounds i8, ptr %13, i64 16
  tail call void @llvm.memset.p0.i64(ptr noundef nonnull align 8 dereferenceable(48) %15, i8 0, i64 32, i1 false)
  store ptr %4, ptr %13, align 8
  %16 = getelementptr inbounds i8, ptr %13, i64 8
  store ptr %11, ptr %16, align 8
  %17 = getelementptr inbounds i8, ptr %13, i64 40
  store i8 1, ptr %17, align 8
  store ptr %13, ptr %0, align 8
  br label %22

18:                                               ; preds = %12
  call void @png_destroy_info_struct(ptr noundef nonnull %4, ptr noundef nonnull %3) #15
  br label %19

19:                                               ; preds = %18, %5
  call void @png_destroy_write_struct(ptr noundef nonnull %2, ptr noundef null)
  br label %20

20:                                               ; preds = %png_create_write_struct.exit.thread, %19
  %21 = call i32 @png_image_error(ptr noundef %0, ptr noundef nonnull @.str.24) #15
  br label %22

22:                                               ; preds = %20, %14
  %.0 = phi i32 [ 1, %14 ], [ %21, %20 ]
  ret i32 %.0
}